target datalayout = "e-m:e-p270:32:32-p271:32:32-p272:64:64-i64:64-i128:128-f80:128-n8:16:32:64-S128"
target triple = "x86_64-pc-linux-gnu"

%struct.CFF_IndexRec_ = type { ptr, i64, i32, i32, i8, i64, i64, ptr, ptr }
%struct.FT_StreamRec_ = type { ptr, i64, i64, %union.FT_StreamDesc_, %union.FT_StreamDesc_, ptr, ptr, ptr, ptr, ptr }
%union.FT_StreamDesc_ = type { i64 }

; Function Attrs: nounwind uwtable
define internal i32 @cff_index_init(ptr noundef %0, ptr noundef %1, i8 noundef zeroext %2, i8 noundef zeroext %3) #0 {
  %5 = alloca ptr, align 8
  %6 = alloca ptr, align 8
  %7 = alloca i8, align 1
  %8 = alloca i8, align 1
  %9 = alloca i32, align 4
  %10 = alloca ptr, align 8
  %11 = alloca i32, align 4
  %12 = alloca i8, align 1
  %13 = alloca i64, align 8
  store ptr %0, ptr %5, align 8
  store ptr %1, ptr %6, align 8
  store i8 %2, ptr %7, align 1
  store i8 %3, ptr %8, align 1
  %14 = load ptr, ptr %6, align 8
  %15 = getelementptr inbounds %struct.FT_StreamRec_, ptr %14, i32 0, i32 7
  %16 = load ptr, ptr %15, align 8
  store ptr %16, ptr %10, align 8
  %17 = load ptr, ptr %5, align 8
  call void @llvm.memset.p0.i64(ptr align 8 %17, i8 0, i64 64, i1 false)
  %18 = load ptr, ptr %6, align 8
  %19 = load ptr, ptr %5, align 8
  %20 = getelementptr inbounds %struct.CFF_IndexRec_, ptr %19, i32 0, i32 0
  store ptr %18, ptr %20, align 8
  %21 = load ptr, ptr %6, align 8
  %22 = call i64 @FT_Stream_Pos(ptr noundef %21)
  %23 = load ptr, ptr %5, align 8
  %24 = getelementptr inbounds %struct.CFF_IndexRec_, ptr %23, i32 0, i32 1
  store i64 %22, ptr %24, align 8
  %25 = load i8, ptr %8, align 1
  %26 = icmp ne i8 %25, 0
  br i1 %26, label %27, label %36

27:                                               ; preds = %4
  %28 = load ptr, ptr %6, align 8
  %29 = call i32 @FT_Stream_ReadULong(ptr noundef %28, ptr noundef %9)
  store i32 %29, ptr %11, align 4
  %30 = load i32, ptr %9, align 4
  %31 = icmp ne i32 %30, 0
  br i1 %31, label %32, label %33

32:                                               ; preds = %27
  br label %132

33:                                               ; preds = %27
  %34 = load ptr, ptr %5, align 8
  %35 = getelementptr inbounds %struct.CFF_IndexRec_, ptr %34, i32 0, i32 2
  store i32 5, ptr %35, align 8
  br label %46

36:                                               ; preds = %4
  %37 = load ptr, ptr %6, align 8
  %38 = call zeroext i16 @FT_Stream_ReadUShort(ptr noundef %37, ptr noundef %9)
  %39 = zext i16 %38 to i32
  store i32 %39, ptr %11, align 4
  %40 = load i32, ptr %9, align 4
  %41 = icmp ne i32 %40, 0
  br i1 %41, label %42, label %43

42:                                               ; preds = %36
  br label %132

43:                                               ; preds = %36
  %44 = load ptr, ptr %5, align 8
  %45 = getelementptr inbounds %struct.CFF_IndexRec_, ptr %44, i32 0, i32 2
  store i32 3, ptr %45, align 8
  br label %46

46:                                               ; preds = %43, %33
  %47 = load i32, ptr %11, align 4
  %48 = icmp ugt i32 %47, 0
  br i1 %48, label %49, label %131

49:                                               ; preds = %46
  %50 = load ptr, ptr %6, align 8
  %51 = call zeroext i8 @FT_Stream_ReadByte(ptr noundef %50, ptr noundef %9)
  store i8 %51, ptr %12, align 1
  %52 = load i32, ptr %9, align 4
  %53 = icmp ne i32 %52, 0
  br i1 %53, label %54, label %55

54:                                               ; preds = %49
  br label %132

55:                                               ; preds = %49
  %56 = load i8, ptr %12, align 1
  %57 = zext i8 %56 to i32
  %58 = icmp slt i32 %57, 1
  br i1 %58, label %63, label %59

59:                                               ; preds = %55
  %60 = load i8, ptr %12, align 1
  %61 = zext i8 %60 to i32
  %62 = icmp sgt i32 %61, 4
  br i1 %62, label %63, label %64

63:                                               ; preds = %59, %55
  store i32 8, ptr %9, align 4
  br label %132

64:                                               ; preds = %59
  %65 = load i32, ptr %11, align 4
  %66 = load ptr, ptr %5, align 8
  %67 = getelementptr inbounds %struct.CFF_IndexRec_, ptr %66, i32 0, i32 3
  store i32 %65, ptr %67, align 4
  %68 = load i8, ptr %12, align 1
  %69 = load ptr, ptr %5, align 8
  %70 = getelementptr inbounds %struct.CFF_IndexRec_, ptr %69, i32 0, i32 4
  store i8 %68, ptr %70, align 8
  %71 = load i32, ptr %11, align 4
  %72 = add i32 %71, 1
  %73 = zext i32 %72 to i64
  %74 = load i8, ptr %12, align 1
  %75 = zext i8 %74 to i64
  %76 = mul i64 %73, %75
  store i64 %76, ptr %13, align 8
  %77 = load ptr, ptr %5, align 8
  %78 = getelementptr inbounds %struct.CFF_IndexRec_, ptr %77, i32 0, i32 1
  %79 = load i64, ptr %78, align 8
  %80 = load ptr, ptr %5, align 8
  %81 = getelementptr inbounds %struct.CFF_IndexRec_, ptr %80, i32 0, i32 2
  %82 = load i32, ptr %81, align 8
  %83 = zext i32 %82 to i64
  %84 = add i64 %79, %83
  %85 = load i64, ptr %13, align 8
  %86 = add i64 %84, %85
  %87 = load ptr, ptr %5, align 8
  %88 = getelementptr inbounds %struct.CFF_IndexRec_, ptr %87, i32 0, i32 5
  store i64 %86, ptr %88, align 8
  %89 = load ptr, ptr %6, align 8
  %90 = load i64, ptr %13, align 8
  %91 = load i8, ptr %12, align 1
  %92 = zext i8 %91 to i64
  %93 = sub i64 %90, %92
  %94 = call i32 @FT_Stream_Skip(ptr noundef %89, i64 noundef %93)
  store i32 %94, ptr %9, align 4
  %95 = icmp ne i32 %94, 0
  br i1 %95, label %96, label %97

96:                                               ; preds = %64
  br label %132

97:                                               ; preds = %64
  %98 = load ptr, ptr %5, align 8
  %99 = call i64 @cff_index_read_offset(ptr noundef %98, ptr noundef %9)
  store i64 %99, ptr %13, align 8
  %100 = load i32, ptr %9, align 4
  %101 = icmp ne i32 %100, 0
  br i1 %101, label %102, label %103

102:                                              ; preds = %97
  br label %132

103:                                              ; preds = %97
  %104 = load i64, ptr %13, align 8
  %105 = icmp eq i64 %104, 0
  br i1 %105, label %106, label %107

106:                                              ; preds = %103
  store i32 8, ptr %9, align 4
  br label %132

107:                                              ; preds = %103
  %108 = load i64, ptr %13, align 8
  %109 = add i64 %108, -1
  store i64 %109, ptr %13, align 8
  %110 = load ptr, ptr %5, align 8
  %111 = getelementptr inbounds %struct.CFF_IndexRec_, ptr %110, i32 0, i32 6
  store i64 %109, ptr %111, align 8
  %112 = load i8, ptr %7, align 1
  %113 = icmp ne i8 %112, 0
  br i1 %113, label %114, label %123

114:                                              ; preds = %107
  %115 = load ptr, ptr %6, align 8
  %116 = load i64, ptr %13, align 8
  %117 = load ptr, ptr %5, align 8
  %118 = getelementptr inbounds %struct.CFF_IndexRec_, ptr %117, i32 0, i32 8
  %119 = call i32 @FT_Stream_ExtractFrame(ptr noundef %115, i64 noundef %116, ptr noundef %118)
  store i32 %119, ptr %9, align 4
  %120 = icmp ne i32 %119, 0
  br i1 %120, label %121, label %122

121:                                              ; preds = %114
  br label %132

122:                                              ; preds = %114
  br label %130

123:                                              ; preds = %107
  %124 = load ptr, ptr %6, align 8
  %125 = load i64, ptr %13, align 8
  %126 = call i32 @FT_Stream_Skip(ptr noundef %124, i64 noundef %125)
  store i32 %126, ptr %9, align 4
  %127 = icmp ne i32 %126, 0
  br i1 %127, label %128, label %129

128:                                              ; preds = %123
  br label %132

129:                                              ; preds = %123
  br label %130

130:                                              ; preds = %129, %122
  br label %131

131:                                              ; preds = %130, %46
  br label %132

132:                                              ; preds = %131, %128, %121, %106, %102, %96, %63, %54, %42, %32
  %133 = load i32, ptr %9, align 4
  %134 = icmp ne i32 %133, 0
  br i1 %134, label %135, label %144

135:                                              ; preds = %132
  br label %136

136:                                              ; preds = %135
  %137 = load ptr, ptr %10, align 8
  %138 = load ptr, ptr %5, align 8
  %139 = getelementptr inbounds %struct.CFF_IndexRec_, ptr %138, i32 0, i32 7
  %140 = load ptr, ptr %139, align 8
  call void @ft_mem_free(ptr noundef %137, ptr noundef %140)
  %141 = load ptr, ptr %5, align 8
  %142 = getelementptr inbounds %struct.CFF_IndexRec_, ptr %141, i32 0, i32 7
  store ptr null, ptr %142, align 8
  br label %143

143:                                              ; preds = %136
  br label %144

144:                                              ; preds = %143, %132
  %145 = load i32, ptr %9, align 4
  ret i32 %145
}