; Function Attrs: nounwind uwtable
define internal fastcc i32 @cff_index_init(ptr noundef %0, ptr noundef %1, i8 noundef zeroext %2, i8 noundef zeroext %3) unnamed_addr #4 {
  %5 = alloca i32, align 4
  %6 = getelementptr inbounds i8, ptr %1, i64 56
  %7 = load ptr, ptr %6, align 8
  %8 = getelementptr inbounds i8, ptr %0, i64 8
  tail call void @llvm.memset.p0.i64(ptr noundef nonnull align 8 dereferenceable(64) %8, i8 0, i64 56, i1 false)
  store ptr %1, ptr %0, align 8
  %9 = tail call i64 @FT_Stream_Pos(ptr noundef %1) #20
  %10 = getelementptr inbounds i8, ptr %0, i64 8
  store i64 %9, ptr %10, align 8
  %.not = icmp eq i8 %3, 0
  br i1 %.not, label %14, label %11

11:                                               ; preds = %4
  %12 = call i32 @FT_Stream_ReadULong(ptr noundef nonnull %1, ptr noundef nonnull %5) #20
  %13 = load i32, ptr %5, align 4
  %.not44 = icmp eq i32 %13, 0
  br i1 %.not44, label %19, label %.thread

14:                                               ; preds = %4
  %15 = call zeroext i16 @FT_Stream_ReadUShort(ptr noundef nonnull %1, ptr noundef nonnull %5) #20
  %16 = load i32, ptr %5, align 4
  %.not43 = icmp eq i32 %16, 0
  br i1 %.not43, label %17, label %.thread

17:                                               ; preds = %14
  %18 = zext i16 %15 to i32
  br label %19

19:                                               ; preds = %11, %17
  %.sink = phi i32 [ 3, %17 ], [ 5, %11 ]
  %.0 = phi i32 [ %18, %17 ], [ %12, %11 ]
  %20 = getelementptr inbounds i8, ptr %0, i64 16
  store i32 %.sink, ptr %20, align 8
  %.not45 = icmp eq i32 %.0, 0
  br i1 %.not45, label %thread-pre-split.thread, label %21

21:                                               ; preds = %19
  %22 = call zeroext i8 @FT_Stream_ReadByte(ptr noundef nonnull %1, ptr noundef nonnull %5) #20
  %23 = load i32, ptr %5, align 4
  %.not46 = icmp eq i32 %23, 0
  br i1 %.not46, label %24, label %.thread

24:                                               ; preds = %21
  %25 = add i8 %22, -5
  %or.cond = icmp ult i8 %25, -4
  br i1 %or.cond, label %26, label %27

26:                                               ; preds = %24
  store i32 8, ptr %5, align 4
  br label %.thread

27:                                               ; preds = %24
  %28 = getelementptr inbounds i8, ptr %0, i64 20
  store i32 %.0, ptr %28, align 4
  %29 = getelementptr inbounds i8, ptr %0, i64 24
  store i8 %22, ptr %29, align 8
  %30 = add i32 %.0, 1
  %31 = zext i32 %30 to i64
  %32 = zext nneg i8 %22 to i64
  %33 = mul nuw nsw i64 %32, %31
  %34 = load i64, ptr %10, align 8
  %35 = getelementptr inbounds i8, ptr %0, i64 16
  %36 = load i32, ptr %35, align 8
  %37 = zext i32 %36 to i64
  %38 = add i64 %34, %33
  %39 = add i64 %38, %37
  %40 = getelementptr inbounds i8, ptr %0, i64 32
  store i64 %39, ptr %40, align 8
  %41 = sub nsw i64 %33, %32
  %42 = call i32 @FT_Stream_Skip(ptr noundef nonnull %1, i64 noundef %41) #20
  store i32 %42, ptr %5, align 4
  %.not47 = icmp eq i32 %42, 0
  br i1 %.not47, label %43, label %.thread

43:                                               ; preds = %27
  %44 = call fastcc i64 @cff_index_read_offset(ptr noundef nonnull %0, ptr noundef nonnull %5)
  %45 = load i32, ptr %5, align 4
  %.not48 = icmp eq i32 %45, 0
  br i1 %.not48, label %46, label %.thread

46:                                               ; preds = %43
  %47 = icmp eq i64 %44, 0
  br i1 %47, label %48, label %49

48:                                               ; preds = %46
  store i32 8, ptr %5, align 4
  br label %.thread

49:                                               ; preds = %46
  %50 = add i64 %44, -1
  %51 = getelementptr inbounds i8, ptr %0, i64 40
  store i64 %50, ptr %51, align 8
  %.not49 = icmp eq i8 %2, 0
  br i1 %.not49, label %55, label %52

52:                                               ; preds = %49
  %53 = getelementptr inbounds i8, ptr %0, i64 56
  %54 = call i32 @FT_Stream_ExtractFrame(ptr noundef nonnull %1, i64 noundef %50, ptr noundef nonnull %53) #20
  br label %thread-pre-split

55:                                               ; preds = %49
  %56 = call i32 @FT_Stream_Skip(ptr noundef nonnull %1, i64 noundef %50) #20
  br label %thread-pre-split

thread-pre-split:                                 ; preds = %55, %52
  %storemerge = phi i32 [ %54, %52 ], [ %56, %55 ]
  store i32 %storemerge, ptr %5, align 4
  %.not50 = icmp eq i32 %storemerge, 0
  br i1 %.not50, label %thread-pre-split.thread, label %.thread

.thread:                                          ; preds = %26, %48, %11, %14, %21, %27, %43, %thread-pre-split
  %57 = getelementptr inbounds i8, ptr %0, i64 48
  %58 = load ptr, ptr %57, align 8
  call void @ft_mem_free(ptr noundef %7, ptr noundef %58) #20
  store ptr null, ptr %57, align 8
  %.pre = load i32, ptr %5, align 4
  br label %thread-pre-split.thread

thread-pre-split.thread:                          ; preds = %19, %.thread, %thread-pre-split
  %59 = phi i32 [ %.pre, %.thread ], [ 0, %thread-pre-split ], [ 0, %19 ]
  ret i32 %59
}